target datalayout = "e-m:e-p270:32:32-p271:32:32-p272:64:64-i64:64-i128:128-f80:128-n8:16:32:64-S128"
target triple = "x86_64-pc-linux-gnu"

%struct.H5HF_hdr_t = type { %struct.H5C_cache_entry_t, i32, i32, i8, i8, i8, i8, %struct.H5HF_dtable_t, i64, i64, i32, i64, i64, %struct.H5O_pline_t, i64, i32, i64, i64, i64, i64, i64, i64, i64, i64, i64, i64, i64, i32, ptr, i64, i8, i8, i8, ptr, i32, ptr, %struct.H5HF_block_iter_t, ptr, i64, i8, i8, i64, i8, i8, i8, i8 }
%struct.H5C_cache_entry_t = type { ptr, i64, i64, ptr, i8, ptr, i8, i8, i8, i8, i32, i8, i8, i8, i8, i8, i32, ptr, i32, i32, i32, i32, i32, i8, i8, ptr, ptr, ptr, ptr, ptr, ptr, i8, i32, i8, i64, ptr, i64, i64, i32, i8, i32, i32, i8, ptr, ptr, ptr }
%struct.H5HF_dtable_t = type { %struct.H5HF_dtable_cparam_t, i64, i32, i32, i32, i32, i32, i32, i32, i64, ptr, ptr, ptr, ptr }
%struct.H5HF_dtable_cparam_t = type { i32, i64, i64, i32, i32 }
%struct.H5O_pline_t = type { %struct.H5O_shared_t, i32, i64, i64, ptr }
%struct.H5O_shared_t = type { i32, ptr, i32, %union.anon }
%union.anon = type { %struct.H5O_mesg_loc_t }
%struct.H5O_mesg_loc_t = type { i32, i64 }
%struct.H5HF_block_iter_t = type { i8, ptr }

@H5HF_init_g = external global i8, align 1
@H5_libterm_g = external global i8, align 1

; Function Attrs: nounwind uwtable
define i32 @H5HF__huge_init(ptr noundef %0) #0 {
  %2 = alloca ptr, align 8
  store ptr %0, ptr %2, align 8, !tbaa !3
  %3 = load i8, ptr @H5HF_init_g, align 1, !tbaa !8, !range !10, !noundef !11
  %4 = trunc i8 %3 to i1
  br i1 %4, label %9, label %5

5:                                                ; preds = %1
  %6 = load i8, ptr @H5_libterm_g, align 1, !tbaa !8, !range !10, !noundef !11
  %7 = trunc i8 %6 to i1
  %8 = xor i1 %7, true
  br label %9

9:                                                ; preds = %5, %1
  %10 = phi i1 [ true, %1 ], [ %8, %5 ]
  %11 = xor i1 %10, true
  %12 = xor i1 %11, true
  %13 = zext i1 %12 to i32
  %14 = sext i32 %13 to i64
  %15 = call i64 @llvm.expect.i64(i64 %14, i64 1)
  %16 = icmp ne i64 %15, 0
  br i1 %16, label %17, label %140

17:                                               ; preds = %9
  %18 = load ptr, ptr %2, align 8, !tbaa !3
  %19 = getelementptr inbounds nuw %struct.H5HF_hdr_t, ptr %18, i32 0, i32 2
  %20 = load i32, ptr %19, align 4, !tbaa !12
  %21 = icmp ugt i32 %20, 0
  br i1 %21, label %22, label %67

22:                                               ; preds = %17
  %23 = load ptr, ptr %2, align 8, !tbaa !3
  %24 = getelementptr inbounds nuw %struct.H5HF_hdr_t, ptr %23, i32 0, i32 1
  %25 = load i32, ptr %24, align 8, !tbaa !34
  %26 = sub i32 %25, 1
  %27 = load ptr, ptr %2, align 8, !tbaa !3
  %28 = getelementptr inbounds nuw %struct.H5HF_hdr_t, ptr %27, i32 0, i32 32
  %29 = load i8, ptr %28, align 2, !tbaa !35
  %30 = zext i8 %29 to i32
  %31 = load ptr, ptr %2, align 8, !tbaa !3
  %32 = getelementptr inbounds nuw %struct.H5HF_hdr_t, ptr %31, i32 0, i32 31
  %33 = load i8, ptr %32, align 1, !tbaa !36
  %34 = zext i8 %33 to i32
  %35 = add nsw i32 %30, %34
  %36 = add nsw i32 %35, 4
  %37 = load ptr, ptr %2, align 8, !tbaa !3
  %38 = getelementptr inbounds nuw %struct.H5HF_hdr_t, ptr %37, i32 0, i32 31
  %39 = load i8, ptr %38, align 1, !tbaa !36
  %40 = zext i8 %39 to i32
  %41 = add nsw i32 %36, %40
  %42 = icmp uge i32 %26, %41
  br i1 %42, label %43, label %63

43:                                               ; preds = %22
  %44 = load ptr, ptr %2, align 8, !tbaa !3
  %45 = getelementptr inbounds nuw %struct.H5HF_hdr_t, ptr %44, i32 0, i32 40
  store i8 1, ptr %45, align 1, !tbaa !37
  %46 = load ptr, ptr %2, align 8, !tbaa !3
  %47 = getelementptr inbounds nuw %struct.H5HF_hdr_t, ptr %46, i32 0, i32 32
  %48 = load i8, ptr %47, align 2, !tbaa !35
  %49 = zext i8 %48 to i32
  %50 = load ptr, ptr %2, align 8, !tbaa !3
  %51 = getelementptr inbounds nuw %struct.H5HF_hdr_t, ptr %50, i32 0, i32 31
  %52 = load i8, ptr %51, align 1, !tbaa !36
  %53 = zext i8 %52 to i32
  %54 = add nsw i32 %49, %53
  %55 = load ptr, ptr %2, align 8, !tbaa !3
  %56 = getelementptr inbounds nuw %struct.H5HF_hdr_t, ptr %55, i32 0, i32 31
  %57 = load i8, ptr %56, align 1, !tbaa !36
  %58 = zext i8 %57 to i32
  %59 = add nsw i32 %54, %58
  %60 = trunc i32 %59 to i8
  %61 = load ptr, ptr %2, align 8, !tbaa !3
  %62 = getelementptr inbounds nuw %struct.H5HF_hdr_t, ptr %61, i32 0, i32 39
  store i8 %60, ptr %62, align 8, !tbaa !38
  br label %66

63:                                               ; preds = %22
  %64 = load ptr, ptr %2, align 8, !tbaa !3
  %65 = getelementptr inbounds nuw %struct.H5HF_hdr_t, ptr %64, i32 0, i32 40
  store i8 0, ptr %65, align 1, !tbaa !37
  br label %66

66:                                               ; preds = %63, %43
  br label %101

67:                                               ; preds = %17
  %68 = load ptr, ptr %2, align 8, !tbaa !3
  %69 = getelementptr inbounds nuw %struct.H5HF_hdr_t, ptr %68, i32 0, i32 32
  %70 = load i8, ptr %69, align 2, !tbaa !35
  %71 = zext i8 %70 to i32
  %72 = load ptr, ptr %2, align 8, !tbaa !3
  %73 = getelementptr inbounds nuw %struct.H5HF_hdr_t, ptr %72, i32 0, i32 31
  %74 = load i8, ptr %73, align 1, !tbaa !36
  %75 = zext i8 %74 to i32
  %76 = add nsw i32 %71, %75
  %77 = load ptr, ptr %2, align 8, !tbaa !3
  %78 = getelementptr inbounds nuw %struct.H5HF_hdr_t, ptr %77, i32 0, i32 1
  %79 = load i32, ptr %78, align 8, !tbaa !34
  %80 = sub i32 %79, 1
  %81 = icmp ule i32 %76, %80
  br i1 %81, label %82, label %97

82:                                               ; preds = %67
  %83 = load ptr, ptr %2, align 8, !tbaa !3
  %84 = getelementptr inbounds nuw %struct.H5HF_hdr_t, ptr %83, i32 0, i32 40
  store i8 1, ptr %84, align 1, !tbaa !37
  %85 = load ptr, ptr %2, align 8, !tbaa !3
  %86 = getelementptr inbounds nuw %struct.H5HF_hdr_t, ptr %85, i32 0, i32 32
  %87 = load i8, ptr %86, align 2, !tbaa !35
  %88 = zext i8 %87 to i32
  %89 = load ptr, ptr %2, align 8, !tbaa !3
  %90 = getelementptr inbounds nuw %struct.H5HF_hdr_t, ptr %89, i32 0, i32 31
  %91 = load i8, ptr %90, align 1, !tbaa !36
  %92 = zext i8 %91 to i32
  %93 = add nsw i32 %88, %92
  %94 = trunc i32 %93 to i8
  %95 = load ptr, ptr %2, align 8, !tbaa !3
  %96 = getelementptr inbounds nuw %struct.H5HF_hdr_t, ptr %95, i32 0, i32 39
  store i8 %94, ptr %96, align 8, !tbaa !38
  br label %100

97:                                               ; preds = %67
  %98 = load ptr, ptr %2, align 8, !tbaa !3
  %99 = getelementptr inbounds nuw %struct.H5HF_hdr_t, ptr %98, i32 0, i32 40
  store i8 0, ptr %99, align 1, !tbaa !37
  br label %100

100:                                              ; preds = %97, %82
  br label %101

101:                                              ; preds = %100, %66
  %102 = load ptr, ptr %2, align 8, !tbaa !3
  %103 = getelementptr inbounds nuw %struct.H5HF_hdr_t, ptr %102, i32 0, i32 40
  %104 = load i8, ptr %103, align 1, !tbaa !37, !range !10, !noundef !11
  %105 = trunc i8 %104 to i1
  br i1 %105, label %137, label %106

106:                                              ; preds = %101
  %107 = load ptr, ptr %2, align 8, !tbaa !3
  %108 = getelementptr inbounds nuw %struct.H5HF_hdr_t, ptr %107, i32 0, i32 1
  %109 = load i32, ptr %108, align 8, !tbaa !34
  %110 = sub i32 %109, 1
  %111 = zext i32 %110 to i64
  %112 = icmp ult i64 %111, 8
  br i1 %112, label %113, label %131

113:                                              ; preds = %106
  %114 = load ptr, ptr %2, align 8, !tbaa !3
  %115 = getelementptr inbounds nuw %struct.H5HF_hdr_t, ptr %114, i32 0, i32 1
  %116 = load i32, ptr %115, align 8, !tbaa !34
  %117 = sub i32 %116, 1
  %118 = trunc i32 %117 to i8
  %119 = load ptr, ptr %2, align 8, !tbaa !3
  %120 = getelementptr inbounds nuw %struct.H5HF_hdr_t, ptr %119, i32 0, i32 39
  store i8 %118, ptr %120, align 8, !tbaa !38
  %121 = load ptr, ptr %2, align 8, !tbaa !3
  %122 = getelementptr inbounds nuw %struct.H5HF_hdr_t, ptr %121, i32 0, i32 39
  %123 = load i8, ptr %122, align 8, !tbaa !38
  %124 = zext i8 %123 to i32
  %125 = mul nsw i32 %124, 8
  %126 = zext i32 %125 to i64
  %127 = shl i64 1, %126
  %128 = sub i64 %127, 1
  %129 = load ptr, ptr %2, align 8, !tbaa !3
  %130 = getelementptr inbounds nuw %struct.H5HF_hdr_t, ptr %129, i32 0, i32 38
  store i64 %128, ptr %130, align 8, !tbaa !39
  br label %136

131:                                              ; preds = %106
  %132 = load ptr, ptr %2, align 8, !tbaa !3
  %133 = getelementptr inbounds nuw %struct.H5HF_hdr_t, ptr %132, i32 0, i32 39
  store i8 8, ptr %133, align 8, !tbaa !38
  %134 = load ptr, ptr %2, align 8, !tbaa !3
  %135 = getelementptr inbounds nuw %struct.H5HF_hdr_t, ptr %134, i32 0, i32 38
  store i64 -1, ptr %135, align 8, !tbaa !39
  br label %136

136:                                              ; preds = %131, %113
  br label %137

137:                                              ; preds = %136, %101
  %138 = load ptr, ptr %2, align 8, !tbaa !3
  %139 = getelementptr inbounds nuw %struct.H5HF_hdr_t, ptr %138, i32 0, i32 37
  store ptr null, ptr %139, align 8, !tbaa !40
  br label %140

140:                                              ; preds = %137, %9
  ret i32 0
}