; Function Attrs: mustprogress nofree norecurse nosync nounwind willreturn memory(read, argmem: readwrite, inaccessiblemem: none) uwtable
define noundef i32 @H5HF__huge_init(ptr noundef captures(none) %0) local_unnamed_addr #0 {
  %2 = load i8, ptr @H5HF_init_g, align 1, !tbaa !3, !range !7, !noundef !8
  %3 = trunc nuw i8 %2 to i1
  %4 = load i8, ptr @H5_libterm_g, align 1, !range !7
  %5 = trunc nuw i8 %4 to i1
  %6 = xor i1 %5, true
  %7 = select i1 %3, i1 true, i1 %6
  br i1 %7, label %8, label %59, !prof !9

8:                                                ; preds = %1
  %9 = getelementptr inbounds nuw i8, ptr %0, i64 252
  %10 = load i32, ptr %9, align 4, !tbaa !10
  %.not = icmp eq i32 %10, 0
  br i1 %.not, label %28, label %11

11:                                               ; preds = %8
  %12 = getelementptr inbounds nuw i8, ptr %0, i64 248
  %13 = load i32, ptr %12, align 8, !tbaa !33
  %14 = add i32 %13, -1
  %15 = getelementptr inbounds nuw i8, ptr %0, i64 618
  %16 = load i8, ptr %15, align 2, !tbaa !34
  %17 = zext i8 %16 to i32
  %18 = getelementptr inbounds nuw i8, ptr %0, i64 617
  %19 = load i8, ptr %18, align 1, !tbaa !35
  %20 = zext i8 %19 to i32
  %factor = shl nuw nsw i32 %20, 1
  %21 = add nuw nsw i32 %17, 4
  %22 = add nuw nsw i32 %21, %factor
  %.not29 = icmp ult i32 %14, %22
  %23 = getelementptr inbounds nuw i8, ptr %0, i64 681
  br i1 %.not29, label %27, label %24

24:                                               ; preds = %11
  store i8 1, ptr %23, align 1, !tbaa !36
  %reass.add = shl i8 %19, 1
  %25 = add i8 %reass.add, %16
  %26 = getelementptr inbounds nuw i8, ptr %0, i64 680
  store i8 %25, ptr %26, align 8, !tbaa !37
  br label %.thread

27:                                               ; preds = %11
  store i8 0, ptr %23, align 1, !tbaa !36
  br label %44

28:                                               ; preds = %8
  %29 = getelementptr inbounds nuw i8, ptr %0, i64 618
  %30 = load i8, ptr %29, align 2, !tbaa !34
  %31 = zext i8 %30 to i32
  %32 = getelementptr inbounds nuw i8, ptr %0, i64 617
  %33 = load i8, ptr %32, align 1, !tbaa !35
  %34 = zext i8 %33 to i32
  %35 = add nuw nsw i32 %34, %31
  %36 = getelementptr inbounds nuw i8, ptr %0, i64 248
  %37 = load i32, ptr %36, align 8, !tbaa !33
  %38 = add i32 %37, -1
  %.not28 = icmp ugt i32 %35, %38
  %39 = getelementptr inbounds nuw i8, ptr %0, i64 681
  br i1 %.not28, label %43, label %40

40:                                               ; preds = %28
  store i8 1, ptr %39, align 1, !tbaa !36
  %41 = add i8 %33, %30
  %42 = getelementptr inbounds nuw i8, ptr %0, i64 680
  store i8 %41, ptr %42, align 8, !tbaa !37
  br label %.thread

43:                                               ; preds = %28
  store i8 0, ptr %39, align 1, !tbaa !36
  br label %44

44:                                               ; preds = %27, %43
  %45 = phi i32 [ %37, %43 ], [ %13, %27 ]
  %46 = add nsw i32 %45, -1
  %47 = icmp samesign ult i32 %46, 8
  br i1 %47, label %48, label %55

48:                                               ; preds = %44
  %49 = trunc nuw i32 %46 to i8
  %50 = getelementptr inbounds nuw i8, ptr %0, i64 680
  store i8 %49, ptr %50, align 8, !tbaa !37
  %51 = shl nuw nsw i32 %46, 3
  %52 = zext nneg i32 %51 to i64
  %notmask = shl nsw i64 -1, %52
  %53 = xor i64 %notmask, -1
  %54 = getelementptr inbounds nuw i8, ptr %0, i64 672
  store i64 %53, ptr %54, align 8, !tbaa !38
  br label %.thread

55:                                               ; preds = %44
  %56 = getelementptr inbounds nuw i8, ptr %0, i64 680
  store i8 8, ptr %56, align 8, !tbaa !37
  %57 = getelementptr inbounds nuw i8, ptr %0, i64 672
  store i64 -1, ptr %57, align 8, !tbaa !38
  br label %.thread

.thread:                                          ; preds = %24, %40, %48, %55
  %58 = getelementptr inbounds nuw i8, ptr %0, i64 664
  store ptr null, ptr %58, align 8, !tbaa !39
  br label %59

59:                                               ; preds = %.thread, %1
  ret i32 0
}